target datalayout = "e-m:e-p270:32:32-p271:32:32-p272:64:64-i64:64-i128:128-f80:128-n8:16:32:64-S128"
target triple = "x86_64-pc-linux-gnu"

%"class.arrow::RunEndEncodedArray" = type { %"class.arrow::Array", %"class.std::shared_ptr.7", %"class.std::shared_ptr.7" }
%"class.arrow::Array" = type { ptr, %"class.std::shared_ptr", ptr }
%"class.std::shared_ptr" = type { %"class.std::__shared_ptr" }
%"class.std::__shared_ptr" = type { ptr, %"class.std::__shared_count" }
%"class.std::__shared_count" = type { ptr }
%"class.std::shared_ptr.7" = type { %"class.std::__shared_ptr.8" }
%"class.std::__shared_ptr.8" = type { ptr, %"class.std::__shared_count" }

@_ZTVN5arrow18RunEndEncodedArrayE = linkonce_odr unnamed_addr constant { [4 x ptr] } { [4 x ptr] [ptr null, ptr @_ZTIN5arrow18RunEndEncodedArrayE, ptr @_ZN5arrow18RunEndEncodedArrayD2Ev, ptr @_ZN5arrow18RunEndEncodedArrayD0Ev] }, comdat, align 8
@_ZTVN5arrow5ArrayE = linkonce_odr unnamed_addr constant { [4 x ptr] } { [4 x ptr] [ptr null, ptr @_ZTIN5arrow5ArrayE, ptr @_ZN5arrow5ArrayD2Ev, ptr @_ZN5arrow5ArrayD0Ev] }, comdat, align 8

; Function Attrs: mustprogress nounwind uwtable
define linkonce_odr void @_ZNSt14__shared_countILN9__gnu_cxx12_Lock_policyE2EEC2Ev(ptr noundef nonnull align 8 dereferenceable(8) %0) unnamed_addr #0 comdat align 2 {
  %2 = alloca ptr, align 8
  store ptr %0, ptr %2, align 8, !tbaa !222
  %3 = load ptr, ptr %2, align 8
  %4 = getelementptr inbounds nuw %"class.std::__shared_count", ptr %3, i32 0, i32 0
  store ptr null, ptr %4, align 8, !tbaa !224
  ret void
}

; Function Attrs: mustprogress nounwind uwtable
define linkonce_odr void @_ZNSt12__shared_ptrIN5arrow9ArrayDataELN9__gnu_cxx12_Lock_policyE2EEC2Ev(ptr noundef nonnull align 8 dereferenceable(16) %0) unnamed_addr #0 comdat align 2 {
  %2 = alloca ptr, align 8
  store ptr %0, ptr %2, align 8, !tbaa !219
  %3 = load ptr, ptr %2, align 8
  %4 = getelementptr inbounds nuw %"class.std::__shared_ptr", ptr %3, i32 0, i32 0
  store ptr null, ptr %4, align 8, !tbaa !221
  %5 = getelementptr inbounds nuw %"class.std::__shared_ptr", ptr %3, i32 0, i32 1
  call void @_ZNSt14__shared_countILN9__gnu_cxx12_Lock_policyE2EEC2Ev(ptr noundef nonnull align 8 dereferenceable(8) %5) #19
  ret void
}

; Function Attrs: mustprogress nounwind uwtable
define linkonce_odr void @_ZNSt12__shared_ptrIN5arrow5ArrayELN9__gnu_cxx12_Lock_policyE2EEC2Ev(ptr noundef nonnull align 8 dereferenceable(16) %0) unnamed_addr #0 comdat align 2 {
  %2 = alloca ptr, align 8
  store ptr %0, ptr %2, align 8, !tbaa !225
  %3 = load ptr, ptr %2, align 8
  %4 = getelementptr inbounds nuw %"class.std::__shared_ptr.8", ptr %3, i32 0, i32 0
  store ptr null, ptr %4, align 8, !tbaa !227
  %5 = getelementptr inbounds nuw %"class.std::__shared_ptr.8", ptr %3, i32 0, i32 1
  call void @_ZNSt14__shared_countILN9__gnu_cxx12_Lock_policyE2EEC2Ev(ptr noundef nonnull align 8 dereferenceable(8) %5) #19
  ret void
}

; Function Attrs: mustprogress nounwind uwtable
define linkonce_odr void @_ZNSt10shared_ptrIN5arrow9ArrayDataEEC2Ev(ptr noundef nonnull align 8 dereferenceable(16) %0) unnamed_addr #0 comdat align 2 {
  %2 = alloca ptr, align 8
  store ptr %0, ptr %2, align 8, !tbaa !55
  %3 = load ptr, ptr %2, align 8
  call void @_ZNSt12__shared_ptrIN5arrow9ArrayDataELN9__gnu_cxx12_Lock_policyE2EEC2Ev(ptr noundef nonnull align 8 dereferenceable(16) %3) #19
  ret void
}

; Function Attrs: mustprogress nounwind uwtable
define linkonce_odr void @_ZNSt10shared_ptrIN5arrow5ArrayEEC2Ev(ptr noundef nonnull align 8 dereferenceable(16) %0) unnamed_addr #0 comdat align 2 {
  %2 = alloca ptr, align 8
  store ptr %0, ptr %2, align 8, !tbaa !69
  %3 = load ptr, ptr %2, align 8
  call void @_ZNSt12__shared_ptrIN5arrow5ArrayELN9__gnu_cxx12_Lock_policyE2EEC2Ev(ptr noundef nonnull align 8 dereferenceable(16) %3) #19
  ret void
}

; Function Attrs: mustprogress nounwind uwtable
define linkonce_odr void @_ZN5arrow5ArrayC2Ev(ptr noundef nonnull align 8 dereferenceable(32) %0) unnamed_addr #0 comdat align 2 {
  %2 = alloca ptr, align 8
  store ptr %0, ptr %2, align 8, !tbaa !59
  %3 = load ptr, ptr %2, align 8
  store ptr getelementptr inbounds inrange(-16, 16) ({ [4 x ptr] }, ptr @_ZTVN5arrow5ArrayE, i32 0, i32 0, i32 2), ptr %3, align 8, !tbaa !57
  %4 = getelementptr inbounds nuw %"class.arrow::Array", ptr %3, i32 0, i32 1
  call void @_ZNSt10shared_ptrIN5arrow9ArrayDataEEC2Ev(ptr noundef nonnull align 8 dereferenceable(16) %4) #19
  %5 = getelementptr inbounds nuw %"class.arrow::Array", ptr %3, i32 0, i32 2
  store ptr null, ptr %5, align 8, !tbaa !61
  ret void
}

; Function Attrs: mustprogress uwtable
define void @_ZN5arrow18RunEndEncodedArrayC2ERKSt10shared_ptrINS_9ArrayDataEE(ptr noundef nonnull align 8 dereferenceable(64) %0, ptr noundef nonnull align 8 dereferenceable(16) %1) unnamed_addr #1 align 2 personality ptr @__gxx_personality_v0 {
  %3 = alloca ptr, align 8
  %4 = alloca ptr, align 8
  %5 = alloca ptr, align 8
  %6 = alloca i32, align 4
  store ptr %0, ptr %3, align 8, !tbaa !53
  store ptr %1, ptr %4, align 8, !tbaa !55
  %7 = load ptr, ptr %3, align 8
  call void @_ZN5arrow5ArrayC2Ev(ptr noundef nonnull align 8 dereferenceable(32) %7) #19
  store ptr getelementptr inbounds inrange(-16, 16) ({ [4 x ptr] }, ptr @_ZTVN5arrow18RunEndEncodedArrayE, i32 0, i32 0, i32 2), ptr %7, align 8, !tbaa !57
  %8 = getelementptr inbounds nuw %"class.arrow::RunEndEncodedArray", ptr %7, i32 0, i32 1
  call void @_ZNSt10shared_ptrIN5arrow5ArrayEEC2Ev(ptr noundef nonnull align 8 dereferenceable(16) %8) #19
  %9 = getelementptr inbounds nuw %"class.arrow::RunEndEncodedArray", ptr %7, i32 0, i32 2
  call void @_ZNSt10shared_ptrIN5arrow5ArrayEEC2Ev(ptr noundef nonnull align 8 dereferenceable(16) %9) #19
  %10 = load ptr, ptr %4, align 8, !tbaa !55
  invoke void @_ZN5arrow18RunEndEncodedArray7SetDataERKSt10shared_ptrINS_9ArrayDataEE(ptr noundef nonnull align 8 dereferenceable(64) %7, ptr noundef nonnull align 8 dereferenceable(16) %10)
          to label %11 unwind label %12

11:                                               ; preds = %2
  ret void

12:                                               ; preds = %2
  %13 = landingpad { ptr, i32 }
          cleanup
  %14 = extractvalue { ptr, i32 } %13, 0
  store ptr %14, ptr %5, align 8
  %15 = extractvalue { ptr, i32 } %13, 1
  store i32 %15, ptr %6, align 4
  call void @_ZNSt12__shared_ptrIN5arrow5ArrayELN9__gnu_cxx12_Lock_policyE2EED2Ev(ptr noundef nonnull align 8 dereferenceable(16) %9) #19
  call void @_ZNSt12__shared_ptrIN5arrow5ArrayELN9__gnu_cxx12_Lock_policyE2EED2Ev(ptr noundef nonnull align 8 dereferenceable(16) %8) #19
  call void @_ZN5arrow5ArrayD2Ev(ptr noundef nonnull align 8 dereferenceable(32) %7) #19
  br label %16

16:                                               ; preds = %12
  %17 = load ptr, ptr %5, align 8
  %18 = load i32, ptr %6, align 4
  %19 = insertvalue { ptr, i32 } poison, ptr %17, 0
  %20 = insertvalue { ptr, i32 } %19, i32 %18, 1
  resume { ptr, i32 } %20
}